Certificate:
    Data:
        Version: 3 (0x2)
        Serial Number: 1 (0x1)
    Signature Algorithm: sha1WithRSAEncryption
        Issuer: C=US, ST=Missouri, L=Saint Louis, O=Barron Family Medicine, OU=Time Stamp Authority, CN=Barron Family Medicine Time Stamp Authority/emailAddress=barronmo@gmail.com
        Validity
            Not Before: May  4 22:35:03 2013 GMT
            Not After : May  4 22:35:03 2014 GMT
        Subject: C=US, ST=Missouri, O=Barron Family Medicine, OU=Time Stamp Service, CN=Barron Family Medicine Time Stamp Service/emailAddress=barronmo@gmail.com
        Subject Public Key Info:
            Public Key Algorithm: rsaEncryption
                Public-Key: (2048 bit)
                Modulus:
                    00:c1:89:15:c2:90:71:bd:b7:a3:d3:ec:91:80:2b:
                    b1:0b:e2:51:13:f2:83:c8:ee:e0:00:cc:e9:48:ba:
                    22:8d:68:82:e6:f1:1a:d7:23:c9:60:37:38:7b:f8:
                    17:11:87:71:4a:10:59:53:2c:ee:af:3a:50:b4:77:
                    a5:7c:82:6d:8f:7f:3a:b0:45:ca:10:f4:37:37:6a:
                    62:ae:64:4b:68:89:23:e3:0d:82:e9:bc:16:85:66:
                    6b:86:b9:0f:81:ae:bb:fb:89:b7:fc:06:a2:59:9d:
                    21:0d:36:22:78:8e:24:0f:92:8c:3f:07:6c:84:c5:
                    09:4a:d5:c8:a7:fe:98:24:e3:09:64:1f:22:03:b6:
                    bb:65:7b:2f:9b:92:c2:5e:ce:e2:29:fc:66:3d:15:
                    5a:99:36:a1:4a:41:a4:8e:a6:db:fc:3f:dc:43:e5:
                    32:4b:0b:14:96:f4:df:9f:66:60:6e:68:52:5e:30:
                    1b:10:6d:e2:e1:19:59:e8:d8:0f:17:d4:3b:62:11:
                    d1:6b:ee:b5:33:66:17:97:7c:d1:37:d6:a6:20:f8:
                    4a:cd:03:49:31:e7:fc:f3:ff:20:49:e6:a5:84:ff:
                    31:6b:04:91:b1:33:b8:50:0e:2d:07:4b:e2:57:66:
                    32:b1:0d:f0:53:5d:6e:6b:ea:47:21:c9:29:a5:be:
                    88:35
                Exponent: 65537 (0x10001)
        X509v3 extensions:
            X509v3 Basic Constraints: 
                CA:FALSE
            Netscape Comment: 
                OpenSSL Generated Certificate
            X509v3 Subject Key Identifier: 
                A5:18:46:94:04:94:E3:07:2B:66:F1:5D:6B:9D:B1:90:6B:A8:E4:5D
            X509v3 Authority Key Identifier: 
                keyid:BB:CB:09:42:6E:05:27:99:AD:2C:2C:51:2D:46:61:A7:16:25:7D:54

            X509v3 Extended Key Usage: critical
                Time Stamping
    Signature Algorithm: sha1WithRSAEncryption
         a5:ef:96:13:56:ad:7c:2b:dc:3c:f7:8b:af:7f:6c:77:75:95:
         84:33:6a:52:3b:3e:85:fb:67:9a:d3:73:63:4d:42:ed:c3:50:
         81:05:c0:04:31:e1:41:96:25:07:33:94:0a:63:7e:16:66:a9:
         f3:55:b0:ba:31:5c:63:1d:d5:2f:0b:1d:d2:98:42:f0:45:7b:
         95:6a:64:7a:aa:f2:ba:02:db:5f:e4:5f:0d:8f:ec:6a:94:c1:
         dd:6a:3d:90:de:3b:cc:92:ea:bc:69:d5:9f:57:a8:37:cc:23:
         a1:ad:c5:8d:18:ea:74:c4:6e:68:0c:23:b5:3a:83:f1:48:c8:
         e3:a0:36:cb:c8:92:23:d7:8d:7a:b1:a1:5e:50:6e:e6:d5:2c:
         70:db:de:e6:27:8a:9d:e5:e0:ec:25:70:b0:42:96:40:f8:f0:
         66:2d:14:1b:73:92:21:c4:68:86:ce:45:7e:57:bd:87:52:68:
         e2:f0:dd:68:89:7d:be:81:8e:76:6c:42:c8:b0:b4:c3:15:7c:
         ec:83:85:03:bc:b9:44:83:d6:dd:08:19:31:8e:90:6e:9b:51:
         5e:91:b2:31:2a:90:5a:f4:4b:46:b9:e3:f9:28:d5:61:e7:46:
         0a:13:99:27:e0:1d:6b:86:31:83:6d:ea:be:ac:46:81:c7:bf:
         49:87:7e:75
-----BEGIN CERTIFICATE-----
MIIEljCCA36gAwIBAgIBATANBgkqhkiG9w0BAQUFADCBzzELMAkGA1UEBhMCVVMx
ETAPBgNVBAgMCE1pc3NvdXJpMRQwEgYDVQQHDAtTYWludCBMb3VpczEfMB0GA1UE
CgwWQmFycm9uIEZhbWlseSBNZWRpY2luZTEdMBsGA1UECwwUVGltZSBTdGFtcCBB
dXRob3JpdHkxNDAyBgNVBAMMK0JhcnJvbiBGYW1pbHkgTWVkaWNpbmUgVGltZSBT
dGFtcCBBdXRob3JpdHkxITAfBgkqhkiG9w0BCQEWEmJhcnJvbm1vQGdtYWlsLmNv
bTAeFw0xMzA1MDQyMjM1MDNaFw0xNDA1MDQyMjM1MDNaMIG1MQswCQYDVQQGEwJV
UzERMA8GA1UECAwITWlzc291cmkxHzAdBgNVBAoMFkJhcnJvbiBGYW1pbHkgTWVk
aWNpbmUxGzAZBgNVBAsMElRpbWUgU3RhbXAgU2VydmljZTEyMDAGA1UEAwwpQmFy
cm9uIEZhbWlseSBNZWRpY2luZSBUaW1lIFN0YW1wIFNlcnZpY2UxITAfBgkqhkiG
9w0BCQEWEmJhcnJvbm1vQGdtYWlsLmNvbTCCASIwDQYJKoZIhvcNAQEBBQADggEP
ADCCAQoCggEBAMGJFcKQcb23o9PskYArsQviURPyg8ju4ADM6Ui6Io1ogubxGtcj
yWA3OHv4FxGHcUoQWVMs7q86ULR3pXyCbY9/OrBFyhD0NzdqYq5kS2iJI+MNgum8
FoVma4a5D4Guu/uJt/wGolmdIQ02IniOJA+SjD8HbITFCUrVyKf+mCTjCWQfIgO2
u2V7L5uSwl7O4in8Zj0VWpk2oUpBpI6m2/w/3EPlMksLFJb0359mYG5oUl4wGxBt
4uEZWejYDxfUO2IR0WvutTNmF5d80TfWpiD4Ss0DSTHn/PP/IEnmpYT/MWsEkbEz
uFAOLQdL4ldmMrEN8FNdbmvqRyHJKaW+iDUCAwEAAaOBlDCBkTAJBgNVHRMEAjAA
MCwGCWCGSAGG+EIBDQQfFh1PcGVuU1NMIEdlbmVyYXRlZCBDZXJ0aWZpY2F0ZTAd
BgNVHQ4EFgQUpRhGlASU4wcrZvFda52xkGuo5F0wHwYDVR0jBBgwFoAUu8sJQm4F
J5mtLCxRLUZhpxYlfVQwFgYDVR0lAQH/BAwwCgYIKwYBBQUHAwgwDQYJKoZIhvcN
AQEFBQADggEBAKXvlhNWrXwr3Dz3i69/bHd1lYQzalI7PoX7Z5rTc2NNQu3DUIEF
wAQx4UGWJQczlApjfhZmqfNVsLoxXGMd1S8LHdKYQvBFe5VqZHqq8roC21/kXw2P
7GqUwd1qPZDeO8yS6rxp1Z9XqDfMI6GtxY0Y6nTEbmgMI7U6g/FIyOOgNsvIkiPX
jXqxoV5QbubVLHDb3uYnip3l4OwlcLBClkD48GYtFBtzkiHEaIbORX5XvYdSaOLw
3WiJfb6BjnZsQsiwtMMVfOyDhQO8uUSD1t0IGTGOkG6bUV6RsjEqkFr0S0a54/ko
1WHnRgoTmSfgHWuGMYNt6r6sRoHHv0mHfnU=
-----END CERTIFICATE-----
